; Function Attrs: nounwind uwtable
define internal range(i32 0, 2) i32 @ipfix_read(ptr noundef readonly captures(none) %0, ptr noundef writeonly captures(none) %1, ptr noundef %2, ptr noundef %3, ptr noundef %4, ptr noundef writeonly captures(none) initializes((0, 8)) %5) #0 {
  %7 = alloca %struct.ipfix_message_header_s, align 4
  %8 = load ptr, ptr %0, align 8
  %9 = tail call i64 @file_tell(ptr noundef %8) #5
  store i64 %9, ptr %5, align 8
  %10 = load ptr, ptr %0, align 8
  call void @llvm.lifetime.start.p0(i64 16, ptr nonnull %7)
  %11 = call fastcc i32 @ipfix_read_message_header(ptr noundef %7, ptr noundef %10, ptr noundef %3, ptr noundef %4)
  %.not.i = icmp eq i32 %11, 0
  br i1 %.not.i, label %ipfix_read_message.exit.thread, label %ipfix_read_message.exit

ipfix_read_message.exit.thread:                   ; preds = %6
  call void @llvm.lifetime.end.p0(i64 16, ptr nonnull %7)
  br label %26

ipfix_read_message.exit:                          ; preds = %6
  store i32 0, ptr %1, align 8
  %12 = call ptr @wtap_block_create(i32 noundef 5) #5
  %13 = getelementptr inbounds nuw i8, ptr %1, i64 232
  store ptr %12, ptr %13, align 8
  %14 = getelementptr inbounds nuw i8, ptr %1, i64 4
  store i32 1, ptr %14, align 4
  %15 = getelementptr inbounds nuw i8, ptr %7, i64 2
  %16 = load i16, ptr %15, align 2
  %17 = zext i16 %16 to i32
  %18 = getelementptr inbounds nuw i8, ptr %1, i64 64
  %19 = getelementptr inbounds nuw i8, ptr %1, i64 68
  store i32 %17, ptr %19, align 4
  store i32 %17, ptr %18, align 8
  %20 = getelementptr inbounds nuw i8, ptr %7, i64 4
  %21 = load i32, ptr %20, align 4
  %22 = zext i32 %21 to i64
  %23 = getelementptr inbounds nuw i8, ptr %1, i64 16
  store i64 %22, ptr %23, align 8
  %24 = getelementptr inbounds nuw i8, ptr %1, i64 24
  store i32 0, ptr %24, align 8
  %25 = call i32 @wtap_read_packet_bytes(ptr noundef %10, ptr noundef %2, i32 noundef %17, ptr noundef %3, ptr noundef %4) #5
  call void @llvm.lifetime.end.p0(i64 16, ptr nonnull %7)
  %.fr = freeze i32 %25
  %.not = icmp eq i32 %.fr, 0
  br i1 %.not, label %26, label %27

26:                                               ; preds = %ipfix_read_message.exit.thread, %ipfix_read_message.exit
  br label %27

27:                                               ; preds = %ipfix_read_message.exit, %26
  %28 = phi i32 [ 0, %26 ], [ 1, %ipfix_read_message.exit ]
  ret i32 %28
}